; Function Attrs: nounwind uwtable
define void @Llb_Nonlin4CutNodes_rec(ptr noundef %0, ptr noundef %1, ptr noundef %2) local_unnamed_addr #2 {
  %4 = getelementptr i8, ptr %0, i64 312
  %.val = load i32, ptr %4, align 8, !tbaa !80
  %5 = getelementptr i8, ptr %1, i64 32
  %.val2033 = load i32, ptr %5, align 8, !tbaa !90
  %.not34 = icmp eq i32 %.val2033, %.val
  br i1 %.not34, label %.loopexit, label %.lr.ph

.lr.ph:                                           ; preds = %3
  %6 = getelementptr i8, ptr %0, i64 112
  br label %7

7:                                                ; preds = %.lr.ph, %tailrecurse
  %8 = phi ptr [ %5, %.lr.ph ], [ %15, %tailrecurse ]
  %.tr3035 = phi ptr [ %1, %.lr.ph ], [ %14, %tailrecurse ]
  store i32 %.val, ptr %8, align 8, !tbaa !90
  %9 = getelementptr i8, ptr %.tr3035, i64 24
  %.val.i = load i64, ptr %9, align 8
  %10 = and i64 %.val.i, 7
  switch i64 %10, label %.thread [
    i64 3, label %Saig_ObjIsLi.exit
    i64 1, label %.loopexit
  ]

Saig_ObjIsLi.exit:                                ; preds = %7
  %.val3.i = load i32, ptr %.tr3035, align 8, !tbaa !91
  %.val4.i = load i32, ptr %6, align 8, !tbaa !92
  %.not29 = icmp slt i32 %.val3.i, %.val4.i
  br i1 %.not29, label %.thread, label %tailrecurse

tailrecurse:                                      ; preds = %Saig_ObjIsLi.exit
  %11 = getelementptr i8, ptr %.tr3035, i64 8
  %.val22 = load ptr, ptr %11, align 8, !tbaa !93
  %12 = ptrtoint ptr %.val22 to i64
  %13 = and i64 %12, -2
  %14 = inttoptr i64 %13 to ptr
  %15 = getelementptr i8, ptr %14, i64 32
  %.val20 = load i32, ptr %15, align 8, !tbaa !90
  %.not = icmp eq i32 %.val20, %.val
  br i1 %.not, label %.loopexit, label %7

.thread:                                          ; preds = %7, %Saig_ObjIsLi.exit
  %16 = getelementptr i8, ptr %.tr3035, i64 8
  %.val23 = load ptr, ptr %16, align 8, !tbaa !93
  %17 = ptrtoint ptr %.val23 to i64
  %18 = and i64 %17, -2
  %19 = inttoptr i64 %18 to ptr
  tail call void @Llb_Nonlin4CutNodes_rec(ptr noundef nonnull %0, ptr noundef %19, ptr noundef %2)
  %20 = getelementptr i8, ptr %.tr3035, i64 16
  %.val25 = load ptr, ptr %20, align 8, !tbaa !94
  %21 = ptrtoint ptr %.val25 to i64
  %22 = and i64 %21, -2
  %23 = inttoptr i64 %22 to ptr
  tail call void @Llb_Nonlin4CutNodes_rec(ptr noundef nonnull %0, ptr noundef %23, ptr noundef %2)
  %24 = getelementptr inbounds nuw i8, ptr %2, i64 4
  %25 = load i32, ptr %24, align 4, !tbaa !67
  %26 = load i32, ptr %2, align 8, !tbaa !66
  %27 = icmp eq i32 %25, %26
  br i1 %27, label %28, label %.Vec_PtrGrow.exit11_crit_edge.i

.Vec_PtrGrow.exit11_crit_edge.i:                  ; preds = %.thread
  %.phi.trans.insert.i = getelementptr inbounds nuw i8, ptr %2, i64 8
  %.pre.i = load ptr, ptr %.phi.trans.insert.i, align 8, !tbaa !62
  br label %Vec_PtrPush.exit

28:                                               ; preds = %.thread
  %29 = icmp slt i32 %25, 16
  br i1 %29, label %30, label %38

30:                                               ; preds = %28
  %31 = getelementptr inbounds nuw i8, ptr %2, i64 8
  %32 = load ptr, ptr %31, align 8, !tbaa !62
  %.not9.i.i = icmp eq ptr %32, null
  br i1 %.not9.i.i, label %35, label %33

33:                                               ; preds = %30
  %34 = tail call dereferenceable_or_null(128) ptr @realloc(ptr noundef nonnull %32, i64 noundef 128) #15
  br label %Vec_PtrGrow.exit.i

35:                                               ; preds = %30
  %36 = tail call noalias dereferenceable_or_null(128) ptr @malloc(i64 noundef 128) #16
  br label %Vec_PtrGrow.exit.i

Vec_PtrGrow.exit.i:                               ; preds = %35, %33
  %37 = phi ptr [ %34, %33 ], [ %36, %35 ]
  store ptr %37, ptr %31, align 8, !tbaa !62
  store i32 16, ptr %2, align 8, !tbaa !66
  br label %Vec_PtrPush.exit

38:                                               ; preds = %28
  %39 = shl nuw nsw i32 %25, 1
  %40 = getelementptr inbounds nuw i8, ptr %2, i64 8
  %41 = load ptr, ptr %40, align 8, !tbaa !62
  %.not9.i10.i = icmp eq ptr %41, null
  %42 = zext nneg i32 %39 to i64
  %43 = shl nuw nsw i64 %42, 3
  br i1 %.not9.i10.i, label %46, label %44

44:                                               ; preds = %38
  %45 = tail call ptr @realloc(ptr noundef nonnull %41, i64 noundef %43) #15
  br label %48

46:                                               ; preds = %38
  %47 = tail call noalias ptr @malloc(i64 noundef %43) #16
  br label %48

48:                                               ; preds = %46, %44
  %49 = phi ptr [ %45, %44 ], [ %47, %46 ]
  store ptr %49, ptr %40, align 8, !tbaa !62
  store i32 %39, ptr %2, align 8, !tbaa !66
  br label %Vec_PtrPush.exit

Vec_PtrPush.exit:                                 ; preds = %.Vec_PtrGrow.exit11_crit_edge.i, %Vec_PtrGrow.exit.i, %48
  %50 = phi ptr [ %.pre.i, %.Vec_PtrGrow.exit11_crit_edge.i ], [ %49, %48 ], [ %37, %Vec_PtrGrow.exit.i ]
  %51 = load i32, ptr %24, align 4, !tbaa !67
  %52 = add nsw i32 %51, 1
  store i32 %52, ptr %24, align 4, !tbaa !67
  %53 = sext i32 %51 to i64
  %54 = getelementptr inbounds ptr, ptr %50, i64 %53
  store ptr %.tr3035, ptr %54, align 8, !tbaa !65
  br label %.loopexit

.loopexit:                                        ; preds = %tailrecurse, %7, %3, %Vec_PtrPush.exit
  ret void
}